target datalayout = "e-m:e-p270:32:32-p271:32:32-p272:64:64-i64:64-i128:128-f80:128-n8:16:32:64-S128"
target triple = "x86_64-pc-linux-gnu"

%struct._object = type { i64, ptr }
%struct.py_annoy = type { %struct._object, i32, ptr }

; Function Attrs: mustprogress sspstrong uwtable
define internal noundef ptr @_ZL17py_an_get_n_itemsP8py_annoy(ptr noundef %0) #2 {
  %2 = alloca ptr, align 8
  %3 = alloca ptr, align 8
  %4 = alloca i32, align 4
  store ptr %0, ptr %3, align 8, !tbaa !31
  %5 = load ptr, ptr %3, align 8, !tbaa !31
  %6 = getelementptr inbounds nuw %struct.py_annoy, ptr %5, i32 0, i32 2
  %7 = load ptr, ptr %6, align 8, !tbaa !36
  %8 = icmp ne ptr %7, null
  br i1 %8, label %10, label %9

9:                                                ; preds = %1
  store ptr null, ptr %2, align 8
  br label %21

10:                                               ; preds = %1
  call void @llvm.lifetime.start.p0(i64 4, ptr %4) #28
  %11 = load ptr, ptr %3, align 8, !tbaa !31
  %12 = getelementptr inbounds nuw %struct.py_annoy, ptr %11, i32 0, i32 2
  %13 = load ptr, ptr %12, align 8, !tbaa !36
  %14 = load ptr, ptr %13, align 8, !tbaa !40
  %15 = getelementptr inbounds ptr, ptr %14, i64 11
  %16 = load ptr, ptr %15, align 8
  %17 = call noundef i32 %16(ptr noundef nonnull align 8 dereferenceable(8) %13)
  store i32 %17, ptr %4, align 4, !tbaa !12
  %18 = load i32, ptr %4, align 4, !tbaa !12
  %19 = sext i32 %18 to i64
  %20 = call ptr @PyLong_FromLong(i64 noundef %19)
  store ptr %20, ptr %2, align 8
  call void @llvm.lifetime.end.p0(i64 4, ptr %4) #28
  br label %21

21:                                               ; preds = %10, %9
  %22 = load ptr, ptr %2, align 8
  ret ptr %22
}